; ModuleID = '21/207.c'
source_filename = "21/207.c"
target datalayout = "e-m:e-p270:32:32-p271:32:32-p272:64:64-i64:64-f80:128-n8:16:32:64-S128"
target triple = "x86_64-pc-linux-gnu"

@.str = private unnamed_addr constant [3 x i8] c"%d\00", align 1
@.str.1 = private unnamed_addr constant [4 x i8] c"%d,\00", align 1

; Function Attrs: noinline nounwind uwtable
define dso_local void @main() #0 {
  %1 = alloca i32, align 4
  %2 = alloca i32, align 4
  %3 = alloca i32, align 4
  %4 = alloca [300 x i32], align 16
  %5 = alloca float, align 4
  %6 = alloca float, align 4
  %7 = alloca i32, align 4
  store float 0.000000e+00, float* %5, align 4
  %8 = call i32 (i8*, ...) @__isoc99_scanf(i8* getelementptr inbounds ([3 x i8], [3 x i8]* @.str, i64 0, i64 0), i32* %1)
  store i32 0, i32* %2, align 4
  br label %9

9:                                                ; preds = %25, %0
  %10 = load i32, i32* %2, align 4
  %11 = load i32, i32* %1, align 4
  %12 = icmp slt i32 %10, %11
  br i1 %12, label %13, label %28

13:                                               ; preds = %9
  %14 = load i32, i32* %2, align 4
  %15 = sext i32 %14 to i64
  %16 = getelementptr inbounds [300 x i32], [300 x i32]* %4, i64 0, i64 %15
  %17 = call i32 (i8*, ...) @__isoc99_scanf(i8* getelementptr inbounds ([3 x i8], [3 x i8]* @.str, i64 0, i64 0), i32* %16)
  %18 = load i32, i32* %2, align 4
  %19 = sext i32 %18 to i64
  %20 = getelementptr inbounds [300 x i32], [300 x i32]* %4, i64 0, i64 %19
  %21 = load i32, i32* %20, align 4
  %22 = sitofp i32 %21 to float
  %23 = load float, float* %5, align 4
  %24 = fadd float %23, %22
  store float %24, float* %5, align 4
  br label %25

25:                                               ; preds = %13
  %26 = load i32, i32* %2, align 4
  %27 = add nsw i32 %26, 1
  store i32 %27, i32* %2, align 4
  br label %9

28:                                               ; preds = %9
  %29 = load float, float* %5, align 4
  %30 = load i32, i32* %1, align 4
  %31 = sitofp i32 %30 to float
  %32 = fdiv float %29, %31
  store float %32, float* %6, align 4
  %33 = load i32, i32* %1, align 4
  %34 = sub nsw i32 %33, 1
  store i32 %34, i32* %2, align 4
  br label %35

35:                                               ; preds = %77, %28
  %36 = load i32, i32* %2, align 4
  %37 = icmp sgt i32 %36, 0
  br i1 %37, label %38, label %80

38:                                               ; preds = %35
  store i32 0, i32* %3, align 4
  br label %39

39:                                               ; preds = %73, %38
  %40 = load i32, i32* %3, align 4
  %41 = load i32, i32* %2, align 4
  %42 = icmp slt i32 %40, %41
  br i1 %42, label %43, label %76

43:                                               ; preds = %39
  %44 = load i32, i32* %3, align 4
  %45 = sext i32 %44 to i64
  %46 = getelementptr inbounds [300 x i32], [300 x i32]* %4, i64 0, i64 %45
  %47 = load i32, i32* %46, align 4
  %48 = load i32, i32* %3, align 4
  %49 = add nsw i32 %48, 1
  %50 = sext i32 %49 to i64
  %51 = getelementptr inbounds [300 x i32], [300 x i32]* %4, i64 0, i64 %50
  %52 = load i32, i32* %51, align 4
  %53 = icmp sgt i32 %47, %52
  br i1 %53, label %54, label %72

54:                                               ; preds = %43
  %55 = load i32, i32* %3, align 4
  %56 = sext i32 %55 to i64
  %57 = getelementptr inbounds [300 x i32], [300 x i32]* %4, i64 0, i64 %56
  %58 = load i32, i32* %57, align 4
  store i32 %58, i32* %7, align 4
  %59 = load i32, i32* %3, align 4
  %60 = add nsw i32 %59, 1
  %61 = sext i32 %60 to i64
  %62 = getelementptr inbounds [300 x i32], [300 x i32]* %4, i64 0, i64 %61
  %63 = load i32, i32* %62, align 4
  %64 = load i32, i32* %3, align 4
  %65 = sext i32 %64 to i64
  %66 = getelementptr inbounds [300 x i32], [300 x i32]* %4, i64 0, i64 %65
  store i32 %63, i32* %66, align 4
  %67 = load i32, i32* %7, align 4
  %68 = load i32, i32* %3, align 4
  %69 = add nsw i32 %68, 1
  %70 = sext i32 %69 to i64
  %71 = getelementptr inbounds [300 x i32], [300 x i32]* %4, i64 0, i64 %70
  store i32 %67, i32* %71, align 4
  br label %72

72:                                               ; preds = %54, %43
  br label %73

73:                                               ; preds = %72
  %74 = load i32, i32* %3, align 4
  %75 = add nsw i32 %74, 1
  store i32 %75, i32* %3, align 4
  br label %39

76:                                               ; preds = %39
  br label %77

77:                                               ; preds = %76
  %78 = load i32, i32* %2, align 4
  %79 = add nsw i32 %78, -1
  store i32 %79, i32* %2, align 4
  br label %35

80:                                               ; preds = %35
  %81 = load float, float* %6, align 4
  %82 = fmul float 2.000000e+00, %81
  %83 = getelementptr inbounds [300 x i32], [300 x i32]* %4, i64 0, i64 0
  %84 = load i32, i32* %83, align 16
  %85 = sitofp i32 %84 to float
  %86 = fsub float %82, %85
  %87 = load i32, i32* %1, align 4
  %88 = sub nsw i32 %87, 1
  %89 = sext i32 %88 to i64
  %90 = getelementptr inbounds [300 x i32], [300 x i32]* %4, i64 0, i64 %89
  %91 = load i32, i32* %90, align 4
  %92 = sitofp i32 %91 to float
  %93 = fsub float %86, %92
  %94 = fcmp ogt float %93, 0.000000e+00
  br i1 %94, label %95, label %135

95:                                               ; preds = %80
  store i32 0, i32* %2, align 4
  br label %96

96:                                               ; preds = %131, %95
  %97 = load i32, i32* %2, align 4
  %98 = load i32, i32* %1, align 4
  %99 = icmp slt i32 %97, %98
  br i1 %99, label %100, label %134

100:                                              ; preds = %96
  %101 = load i32, i32* %2, align 4
  %102 = sext i32 %101 to i64
  %103 = getelementptr inbounds [300 x i32], [300 x i32]* %4, i64 0, i64 %102
  %104 = load i32, i32* %103, align 4
  %105 = getelementptr inbounds [300 x i32], [300 x i32]* %4, i64 0, i64 0
  %106 = load i32, i32* %105, align 16
  %107 = icmp eq i32 %104, %106
  br i1 %107, label %108, label %130

108:                                              ; preds = %100
  %109 = load i32, i32* %2, align 4
  %110 = add nsw i32 %109, 1
  %111 = sext i32 %110 to i64
  %112 = getelementptr inbounds [300 x i32], [300 x i32]* %4, i64 0, i64 %111
  %113 = load i32, i32* %112, align 4
  %114 = getelementptr inbounds [300 x i32], [300 x i32]* %4, i64 0, i64 0
  %115 = load i32, i32* %114, align 16
  %116 = icmp ne i32 %113, %115
  br i1 %116, label %117, label %123

117:                                              ; preds = %108
  %118 = load i32, i32* %2, align 4
  %119 = sext i32 %118 to i64
  %120 = getelementptr inbounds [300 x i32], [300 x i32]* %4, i64 0, i64 %119
  %121 = load i32, i32* %120, align 4
  %122 = call i32 (i8*, ...) @printf(i8* getelementptr inbounds ([3 x i8], [3 x i8]* @.str, i64 0, i64 0), i32 %121)
  br label %129

123:                                              ; preds = %108
  %124 = load i32, i32* %2, align 4
  %125 = sext i32 %124 to i64
  %126 = getelementptr inbounds [300 x i32], [300 x i32]* %4, i64 0, i64 %125
  %127 = load i32, i32* %126, align 4
  %128 = call i32 (i8*, ...) @printf(i8* getelementptr inbounds ([4 x i8], [4 x i8]* @.str.1, i64 0, i64 0), i32 %127)
  br label %129

129:                                              ; preds = %123, %117
  br label %130

130:                                              ; preds = %129, %100
  br label %131

131:                                              ; preds = %130
  %132 = load i32, i32* %2, align 4
  %133 = add nsw i32 %132, 1
  store i32 %133, i32* %2, align 4
  br label %96

134:                                              ; preds = %96
  br label %135

135:                                              ; preds = %134, %80
  %136 = load float, float* %6, align 4
  %137 = fmul float 2.000000e+00, %136
  %138 = getelementptr inbounds [300 x i32], [300 x i32]* %4, i64 0, i64 0
  %139 = load i32, i32* %138, align 16
  %140 = sitofp i32 %139 to float
  %141 = fsub float %137, %140
  %142 = load i32, i32* %1, align 4
  %143 = sub nsw i32 %142, 1
  %144 = sext i32 %143 to i64
  %145 = getelementptr inbounds [300 x i32], [300 x i32]* %4, i64 0, i64 %144
  %146 = load i32, i32* %145, align 4
  %147 = sitofp i32 %146 to float
  %148 = fsub float %141, %147
  %149 = fcmp ole float %148, 0.000000e+00
  br i1 %149, label %150, label %204

150:                                              ; preds = %135
  store i32 0, i32* %2, align 4
  br label %151

151:                                              ; preds = %200, %150
  %152 = load i32, i32* %2, align 4
  %153 = load i32, i32* %1, align 4
  %154 = icmp slt i32 %152, %153
  br i1 %154, label %155, label %203

155:                                              ; preds = %151
  %156 = load i32, i32* %2, align 4
  %157 = sext i32 %156 to i64
  %158 = getelementptr inbounds [300 x i32], [300 x i32]* %4, i64 0, i64 %157
  %159 = load i32, i32* %158, align 4
  %160 = load i32, i32* %1, align 4
  %161 = sub nsw i32 %160, 1
  %162 = sext i32 %161 to i64
  %163 = getelementptr inbounds [300 x i32], [300 x i32]* %4, i64 0, i64 %162
  %164 = load i32, i32* %163, align 4
  %165 = icmp eq i32 %159, %164
  br i1 %165, label %181, label %166

166:                                              ; preds = %155
  %167 = load i32, i32* %2, align 4
  %168 = sext i32 %167 to i64
  %169 = getelementptr inbounds [300 x i32], [300 x i32]* %4, i64 0, i64 %168
  %170 = load i32, i32* %169, align 4
  %171 = load i32, i32* %1, align 4
  %172 = sub nsw i32 %171, 1
  %173 = sext i32 %172 to i64
  %174 = getelementptr inbounds [300 x i32], [300 x i32]* %4, i64 0, i64 %173
  %175 = load i32, i32* %174, align 4
  %176 = add nsw i32 %170, %175
  %177 = sitofp i32 %176 to float
  %178 = load float, float* %6, align 4
  %179 = fmul float 2.000000e+00, %178
  %180 = fcmp oeq float %177, %179
  br i1 %180, label %181, label %199

181:                                              ; preds = %166, %155
  %182 = load i32, i32* %2, align 4
  %183 = load i32, i32* %1, align 4
  %184 = sub nsw i32 %183, 1
  %185 = icmp eq i32 %182, %184
  br i1 %185, label %186, label %192

186:                                              ; preds = %181
  %187 = load i32, i32* %2, align 4
  %188 = sext i32 %187 to i64
  %189 = getelementptr inbounds [300 x i32], [300 x i32]* %4, i64 0, i64 %188
  %190 = load i32, i32* %189, align 4
  %191 = call i32 (i8*, ...) @printf(i8* getelementptr inbounds ([3 x i8], [3 x i8]* @.str, i64 0, i64 0), i32 %190)
  br label %198

192:                                              ; preds = %181
  %193 = load i32, i32* %2, align 4
  %194 = sext i32 %193 to i64
  %195 = getelementptr inbounds [300 x i32], [300 x i32]* %4, i64 0, i64 %194
  %196 = load i32, i32* %195, align 4
  %197 = call i32 (i8*, ...) @printf(i8* getelementptr inbounds ([4 x i8], [4 x i8]* @.str.1, i64 0, i64 0), i32 %196)
  br label %198

198:                                              ; preds = %192, %186
  br label %199

199:                                              ; preds = %198, %166
  br label %200

200:                                              ; preds = %199
  %201 = load i32, i32* %2, align 4
  %202 = add nsw i32 %201, 1
  store i32 %202, i32* %2, align 4
  br label %151

203:                                              ; preds = %151
  br label %204

204:                                              ; preds = %203, %135
  ret void
}

declare dso_local i32 @__isoc99_scanf(i8*, ...) #1

declare dso_local i32 @printf(i8*, ...) #1


!llvm.module.flags = !{!0}
!llvm.ident = !{!1}

!0 = !{i32 1, !"wchar_size", i32 4}
!1 = !{!"clang version 10.0.0-4ubuntu1 "}
